Certificate:
    Data:
        Version: 1 (0x0)
        Serial Number: 16 (0x10)
    Signature Algorithm: md5WithRSAEncryption
        Issuer: O=NOVA ROOT, L=Mountain View, ST=California, C=US
        Validity
            Not Before: May 27 11:07:50 2014 GMT
            Not After : May 27 11:07:50 2015 GMT
        Subject: C=US, ST=California, O=OpenStack, OU=NovaDev, CN=openstack-fake-2014-05-27T11:07:50Z
        Subject Public Key Info:
            Public Key Algorithm: rsaEncryption
                Public-Key: (1024 bit)
                Modulus:
                    00:bb:eb:37:36:de:f9:bd:dc:b8:06:a7:4e:e5:ee:
                    d9:29:8f:b6:da:ed:5b:a7:62:a2:ac:2f:96:9f:b9:
                    54:ff:ba:9c:4a:a5:aa:7c:54:56:91:c6:1b:d3:8f:
                    14:69:a3:d0:96:2a:fe:27:82:31:2e:7a:06:5e:41:
                    63:0f:b4:72:c6:8a:43:96:25:0c:7a:15:2a:d8:54:
                    51:51:b1:5f:a5:95:6e:2b:90:c0:81:e9:6a:94:9a:
                    87:47:83:d2:a1:ab:5a:d0:49:b8:ac:30:b8:83:8f:
                    f2:6d:3d:38:fe:8c:67:5b:c1:2b:76:6a:24:81:77:
                    5e:54:aa:ed:74:70:89:32:33
                Exponent: 65537 (0x10001)
    Signature Algorithm: md5WithRSAEncryption
         35:5d:53:cb:80:4b:74:7d:5f:fa:d5:5d:fd:5b:93:09:bc:ad:
         19:43:d2:43:7c:76:51:66:b5:20:1a:65:e9:ce:73:a2:10:08:
         61:a9:ad:7d:8c:01:37:b0:a2:da:4f:2d:6a:e6:52:91:c6:ca:
         b9:56:14:4c:5d:68:96:56:b8:03:7e:2c:8c:6e:2d:74:1b:90:
         7a:8e:4a:63:20:59:04:99:1c:ce:5f:2b:d2:33:20:3c:86:8b:
         02:b3:20:fd:93:b9:fc:ff:41:7c:ce:5f:9e:a3:0d:46:2f:b5:
         f0:0f:f6:95:51:95:25:84:e8:19:28:a5:de:60:23:b2:f5:56:
         ea:95
-----BEGIN CERTIFICATE-----
MIICMzCCAZwCARAwDQYJKoZIhvcNAQEEBQAwTjESMBAGA1UEChMJTk9WQSBST09U
MRYwFAYDVQQHEw1Nb3VudGFpbiBWaWV3MRMwEQYDVQQIEwpDYWxpZm9ybmlhMQsw
CQYDVQQGEwJVUzAeFw0xNDA1MjcxMTA3NTBaFw0xNTA1MjcxMTA3NTBaMHYxCzAJ
BgNVBAYTAlVTMRMwEQYDVQQIDApDYWxpZm9ybmlhMRIwEAYDVQQKDAlPcGVuU3Rh
Y2sxEDAOBgNVBAsMB05vdmFEZXYxLDAqBgNVBAMMI29wZW5zdGFjay1mYWtlLTIw
MTQtMDUtMjdUMTE6MDc6NTBaMIGfMA0GCSqGSIb3DQEBAQUAA4GNADCBiQKBgQC7
6zc23vm93LgGp07l7tkpj7ba7VunYqKsL5afuVT/upxKpap8VFaRxhvTjxRpo9CW
Kv4ngjEuegZeQWMPtHLGikOWJQx6FSrYVFFRsV+llW4rkMCB6WqUmodHg9Khq1rQ
SbisMLiDj/JtPTj+jGdbwSt2aiSBd15Uqu10cIkyMwIDAQABMA0GCSqGSIb3DQEB
BAUAA4GBADVdU8uAS3R9X/rVXf1bkwm8rRlD0kN8dlFmtSAaZenOc6IQCGGprX2M
ATewotpPLWrmUpHGyrlWFExdaJZWuAN+LIxuLXQbkHqOSmMgWQSZHM5fK9IzIDyG
iwKzIP2Tufz/QXzOX56jDUYvtfAP9pVRlSWE6Bkopd5gI7L1VuqV
-----END CERTIFICATE-----
