Certificate:
    Data:
        Version: 1 (0x0)
        Serial Number: 17 (0x11)
    Signature Algorithm: md5WithRSAEncryption
        Issuer: O=NOVA ROOT, L=Mountain View, ST=California, C=US
        Validity
            Not Before: May 27 11:08:12 2014 GMT
            Not After : May 27 11:08:12 2015 GMT
        Subject: C=US, ST=California, O=OpenStack, OU=NovaDev, CN=openstack-fake-2014-05-27T11:08:12Z
        Subject Public Key Info:
            Public Key Algorithm: rsaEncryption
                Public-Key: (1024 bit)
                Modulus:
                    00:ca:7a:d8:ce:18:33:1c:f4:c6:b2:c1:3c:a3:fb:
                    1e:db:1b:4d:f8:3c:02:07:27:5f:94:f3:41:9e:ae:
                    0c:0f:30:b7:eb:69:aa:13:1a:6f:6d:0a:1f:c5:7c:
                    1b:4a:1f:f9:60:a5:b8:59:04:bc:c7:fa:15:75:a8:
                    4c:82:fa:d1:63:b4:95:1f:f6:9f:a6:67:e7:4c:3d:
                    f1:6a:a3:3b:af:b3:0d:30:96:64:61:e9:95:22:f2:
                    c1:26:ba:fe:42:fc:0c:e7:5f:8c:04:b5:9c:fe:be:
                    64:44:e6:f1:a0:15:33:d0:fe:e4:77:2f:5b:d2:1a:
                    06:8a:15:76:b4:7b:19:2a:3f
                Exponent: 65537 (0x10001)
    Signature Algorithm: md5WithRSAEncryption
         b7:cb:25:5f:f6:49:c4:fe:e0:6a:29:53:6a:58:af:4b:97:65:
         e7:67:8c:c4:29:40:8e:79:fd:43:20:87:78:57:76:c6:c1:ae:
         a5:6e:4e:28:1d:1e:c4:de:49:69:8b:d0:37:cb:3c:13:38:43:
         2b:65:bf:c7:bb:c8:0d:a2:af:bc:f2:2c:e8:7e:f9:0d:e7:32:
         f8:e6:ab:58:4f:2d:e1:33:77:01:5d:11:91:8e:3a:ac:c4:02:
         4d:45:b5:3f:a3:06:b3:b6:48:d3:15:24:eb:2d:14:5c:d3:2a:
         3c:be:d7:23:1c:92:9c:c1:dd:fb:7e:1b:a0:7c:04:0c:4e:e9:
         36:7c
-----BEGIN CERTIFICATE-----
MIICMzCCAZwCAREwDQYJKoZIhvcNAQEEBQAwTjESMBAGA1UEChMJTk9WQSBST09U
MRYwFAYDVQQHEw1Nb3VudGFpbiBWaWV3MRMwEQYDVQQIEwpDYWxpZm9ybmlhMQsw
CQYDVQQGEwJVUzAeFw0xNDA1MjcxMTA4MTJaFw0xNTA1MjcxMTA4MTJaMHYxCzAJ
BgNVBAYTAlVTMRMwEQYDVQQIDApDYWxpZm9ybmlhMRIwEAYDVQQKDAlPcGVuU3Rh
Y2sxEDAOBgNVBAsMB05vdmFEZXYxLDAqBgNVBAMMI29wZW5zdGFjay1mYWtlLTIw
MTQtMDUtMjdUMTE6MDg6MTJaMIGfMA0GCSqGSIb3DQEBAQUAA4GNADCBiQKBgQDK
etjOGDMc9MaywTyj+x7bG034PAIHJ1+U80GergwPMLfraaoTGm9tCh/FfBtKH/lg
pbhZBLzH+hV1qEyC+tFjtJUf9p+mZ+dMPfFqozuvsw0wlmRh6ZUi8sEmuv5C/Azn
X4wEtZz+vmRE5vGgFTPQ/uR3L1vSGgaKFXa0exkqPwIDAQABMA0GCSqGSIb3DQEB
BAUAA4GBALfLJV/2ScT+4GopU2pYr0uXZednjMQpQI55/UMgh3hXdsbBrqVuTigd
HsTeSWmL0DfLPBM4Qytlv8e7yA2ir7zyLOh++Q3nMvjmq1hPLeEzdwFdEZGOOqzE
Ak1FtT+jBrO2SNMVJOstFFzTKjy+1yMckpzB3ft+G6B8BAxO6TZ8
-----END CERTIFICATE-----
