Certificate:
    Data:
        Version: 1 (0x0)
        Serial Number: 18 (0x12)
    Signature Algorithm: md5WithRSAEncryption
        Issuer: O=NOVA ROOT, L=Mountain View, ST=California, C=US
        Validity
            Not Before: May 27 11:13:27 2014 GMT
            Not After : May 27 11:13:27 2015 GMT
        Subject: C=US, ST=California, O=OpenStack, OU=NovaDev, CN=openstack-fake-2014-05-27T11:13:27Z
        Subject Public Key Info:
            Public Key Algorithm: rsaEncryption
                Public-Key: (1024 bit)
                Modulus:
                    00:b3:26:12:7c:2f:6f:52:db:36:21:ed:d7:09:da:
                    fb:39:39:3b:1d:d2:dc:8f:6e:d4:1c:df:77:5a:ba:
                    9c:04:8a:7f:0a:26:13:55:ef:e3:59:83:dd:0a:e6:
                    d7:c1:ab:cf:28:47:f3:46:09:0e:9c:b2:83:6b:d8:
                    5b:b5:cf:75:4c:72:28:1b:d7:49:f3:2d:89:18:45:
                    dc:32:88:5d:23:da:bc:a0:da:14:68:fe:e2:d0:08:
                    5a:39:23:82:47:73:a3:63:32:8f:1d:45:0f:9e:ed:
                    fc:50:fe:b8:3e:a6:5e:54:83:28:d5:49:b2:18:15:
                    1a:d3:0e:02:07:c5:76:06:85
                Exponent: 65537 (0x10001)
    Signature Algorithm: md5WithRSAEncryption
         a5:b9:1f:2a:8f:6d:be:07:c7:9b:82:8d:1a:ba:42:39:16:77:
         32:5a:c4:de:62:bd:02:04:91:3f:2c:8d:26:b1:b3:8a:ac:36:
         b7:a5:79:c4:e8:ab:40:01:88:da:1d:01:61:70:39:26:aa:41:
         d7:8f:3b:cd:57:32:58:7c:90:c7:f9:e8:a0:e1:24:ba:ba:43:
         cb:8c:5b:cb:0b:49:79:32:09:c6:fd:10:83:ce:7e:a2:f7:90:
         57:39:ea:3f:10:98:32:3f:96:a3:65:a8:1e:e2:a9:14:0a:7a:
         1d:a8:fe:bb:1f:8c:5e:17:b7:55:20:7f:aa:a0:c4:a4:66:e7:
         c4:c6
-----BEGIN CERTIFICATE-----
MIICMzCCAZwCARIwDQYJKoZIhvcNAQEEBQAwTjESMBAGA1UEChMJTk9WQSBST09U
MRYwFAYDVQQHEw1Nb3VudGFpbiBWaWV3MRMwEQYDVQQIEwpDYWxpZm9ybmlhMQsw
CQYDVQQGEwJVUzAeFw0xNDA1MjcxMTEzMjdaFw0xNTA1MjcxMTEzMjdaMHYxCzAJ
BgNVBAYTAlVTMRMwEQYDVQQIDApDYWxpZm9ybmlhMRIwEAYDVQQKDAlPcGVuU3Rh
Y2sxEDAOBgNVBAsMB05vdmFEZXYxLDAqBgNVBAMMI29wZW5zdGFjay1mYWtlLTIw
MTQtMDUtMjdUMTE6MTM6MjdaMIGfMA0GCSqGSIb3DQEBAQUAA4GNADCBiQKBgQCz
JhJ8L29S2zYh7dcJ2vs5OTsd0tyPbtQc33daupwEin8KJhNV7+NZg90K5tfBq88o
R/NGCQ6csoNr2Fu1z3VMcigb10nzLYkYRdwyiF0j2ryg2hRo/uLQCFo5I4JHc6Nj
Mo8dRQ+e7fxQ/rg+pl5UgyjVSbIYFRrTDgIHxXYGhQIDAQABMA0GCSqGSIb3DQEB
BAUAA4GBAKW5HyqPbb4Hx5uCjRq6QjkWdzJaxN5ivQIEkT8sjSaxs4qsNrelecTo
q0ABiNodAWFwOSaqQdePO81XMlh8kMf56KDhJLq6Q8uMW8sLSXkyCcb9EIPOfqL3
kFc56j8QmDI/lqNlqB7iqRQKeh2o/rsfjF4Xt1Ugf6qgxKRm58TG
-----END CERTIFICATE-----
