Certificate:
    Data:
        Version: 1 (0x0)
        Serial Number: 19 (0x13)
    Signature Algorithm: md5WithRSAEncryption
        Issuer: O=NOVA ROOT, L=Mountain View, ST=California, C=US
        Validity
            Not Before: May 27 13:31:57 2014 GMT
            Not After : May 27 13:31:57 2015 GMT
        Subject: C=US, ST=California, O=OpenStack, OU=NovaDev, CN=openstack-fake-2014-05-27T13:31:56Z
        Subject Public Key Info:
            Public Key Algorithm: rsaEncryption
                Public-Key: (1024 bit)
                Modulus:
                    00:b1:de:27:59:2e:19:a6:41:17:db:2f:10:25:53:
                    31:fa:af:a6:b4:77:a2:24:ba:03:22:2b:f8:2d:fb:
                    a0:0b:58:59:a7:15:78:71:fd:7a:08:84:c0:c2:d7:
                    a7:53:c0:3b:12:da:65:14:7f:3a:2c:ea:9f:88:a9:
                    52:4e:b7:26:0c:8c:7f:7e:bd:45:5d:a3:91:9c:87:
                    f3:a6:32:f3:d5:9d:74:3e:e8:b6:ab:a4:22:3d:bb:
                    f4:ee:4e:40:b0:1a:4b:d7:0a:c7:d3:b0:50:0b:ba:
                    40:ca:e3:db:7e:16:49:09:75:b2:93:a2:91:14:d8:
                    d6:fa:25:f1:c1:8e:2f:c4:cb
                Exponent: 65537 (0x10001)
    Signature Algorithm: md5WithRSAEncryption
         8a:73:16:5e:60:2a:63:ff:96:75:8f:4e:27:c4:75:9d:eb:bc:
         ea:71:1b:15:c5:0e:05:f3:3b:a1:35:dd:67:a5:9d:1f:eb:1f:
         29:00:ad:54:14:0d:21:d9:73:f0:b2:0a:3a:cb:73:1d:47:94:
         32:65:25:37:81:70:3e:be:2e:75:9a:33:35:a3:41:b4:c2:21:
         bd:74:37:29:12:42:1a:12:10:3f:cf:db:b2:a0:ba:2e:c3:2f:
         6d:d8:76:c7:51:cb:54:c3:55:d6:89:f3:ed:bf:13:1c:69:39:
         6c:e2:e5:a2:a5:2b:56:78:8c:60:18:2e:3a:fd:8c:81:40:96:
         de:96
-----BEGIN CERTIFICATE-----
MIICMzCCAZwCARMwDQYJKoZIhvcNAQEEBQAwTjESMBAGA1UEChMJTk9WQSBST09U
MRYwFAYDVQQHEw1Nb3VudGFpbiBWaWV3MRMwEQYDVQQIEwpDYWxpZm9ybmlhMQsw
CQYDVQQGEwJVUzAeFw0xNDA1MjcxMzMxNTdaFw0xNTA1MjcxMzMxNTdaMHYxCzAJ
BgNVBAYTAlVTMRMwEQYDVQQIDApDYWxpZm9ybmlhMRIwEAYDVQQKDAlPcGVuU3Rh
Y2sxEDAOBgNVBAsMB05vdmFEZXYxLDAqBgNVBAMMI29wZW5zdGFjay1mYWtlLTIw
MTQtMDUtMjdUMTM6MzE6NTZaMIGfMA0GCSqGSIb3DQEBAQUAA4GNADCBiQKBgQCx
3idZLhmmQRfbLxAlUzH6r6a0d6IkugMiK/gt+6ALWFmnFXhx/XoIhMDC16dTwDsS
2mUUfzos6p+IqVJOtyYMjH9+vUVdo5Gch/OmMvPVnXQ+6LarpCI9u/TuTkCwGkvX
CsfTsFALukDK49t+FkkJdbKTopEU2Nb6JfHBji/EywIDAQABMA0GCSqGSIb3DQEB
BAUAA4GBAIpzFl5gKmP/lnWPTifEdZ3rvOpxGxXFDgXzO6E13WelnR/rHykArVQU
DSHZc/CyCjrLcx1HlDJlJTeBcD6+LnWaMzWjQbTCIb10NykSQhoSED/P27Kgui7D
L23YdsdRy1TDVdaJ8+2/ExxpOWzi5aKlK1Z4jGAYLjr9jIFAlt6W
-----END CERTIFICATE-----
