Certificate:
    Data:
        Version: 1 (0x0)
        Serial Number: 20 (0x14)
    Signature Algorithm: md5WithRSAEncryption
        Issuer: O=NOVA ROOT, L=Mountain View, ST=California, C=US
        Validity
            Not Before: May 27 13:32:29 2014 GMT
            Not After : May 27 13:32:29 2015 GMT
        Subject: C=US, ST=California, O=OpenStack, OU=NovaDev, CN=openstack-fake-2014-05-27T13:32:29Z
        Subject Public Key Info:
            Public Key Algorithm: rsaEncryption
                Public-Key: (1024 bit)
                Modulus:
                    00:b6:f1:e4:18:8a:a6:dd:71:e3:22:2d:66:42:78:
                    ce:4b:d6:0f:89:9a:02:99:38:37:22:ae:0f:58:8f:
                    9e:7d:9a:9c:49:19:47:4d:90:5a:f7:89:a3:ce:97:
                    c2:77:be:26:fd:03:26:21:b0:cd:39:4f:72:7b:99:
                    c2:c9:b5:5b:c6:18:43:c1:1a:e3:2a:77:17:c1:bb:
                    91:04:11:68:a8:db:ff:3e:47:87:b6:26:ad:a5:ff:
                    7b:cb:b4:01:19:05:54:ba:b0:37:9a:89:ff:01:3a:
                    36:4c:78:9a:ba:55:66:ce:08:ba:4e:7a:61:da:0c:
                    d2:39:87:ca:41:3d:e7:fb:8f
                Exponent: 65537 (0x10001)
    Signature Algorithm: md5WithRSAEncryption
         94:b0:2e:77:27:29:83:ea:b6:59:3c:51:81:9a:2d:80:88:de:
         50:e3:e6:da:e1:c0:0c:98:de:31:db:45:5c:b2:0f:db:77:a4:
         1b:92:39:4f:0d:32:d8:a7:80:09:e0:e8:f9:3f:ed:69:72:d9:
         0a:0f:11:2a:68:9a:b4:bc:1c:24:a7:26:8f:8d:14:47:c9:87:
         4a:1e:ee:ad:d8:b7:0e:06:42:4d:75:4d:56:af:02:4c:b7:52:
         a7:f7:da:ae:34:1e:2a:fa:ca:36:7b:c1:a0:22:73:ef:df:90:
         b8:e0:03:ea:da:39:0d:b1:63:a8:a3:91:97:7f:07:44:dd:77:
         d2:93
-----BEGIN CERTIFICATE-----
MIICMzCCAZwCARQwDQYJKoZIhvcNAQEEBQAwTjESMBAGA1UEChMJTk9WQSBST09U
MRYwFAYDVQQHEw1Nb3VudGFpbiBWaWV3MRMwEQYDVQQIEwpDYWxpZm9ybmlhMQsw
CQYDVQQGEwJVUzAeFw0xNDA1MjcxMzMyMjlaFw0xNTA1MjcxMzMyMjlaMHYxCzAJ
BgNVBAYTAlVTMRMwEQYDVQQIDApDYWxpZm9ybmlhMRIwEAYDVQQKDAlPcGVuU3Rh
Y2sxEDAOBgNVBAsMB05vdmFEZXYxLDAqBgNVBAMMI29wZW5zdGFjay1mYWtlLTIw
MTQtMDUtMjdUMTM6MzI6MjlaMIGfMA0GCSqGSIb3DQEBAQUAA4GNADCBiQKBgQC2
8eQYiqbdceMiLWZCeM5L1g+JmgKZODcirg9Yj559mpxJGUdNkFr3iaPOl8J3vib9
AyYhsM05T3J7mcLJtVvGGEPBGuMqdxfBu5EEEWio2/8+R4e2Jq2l/3vLtAEZBVS6
sDeaif8BOjZMeJq6VWbOCLpOemHaDNI5h8pBPef7jwIDAQABMA0GCSqGSIb3DQEB
BAUAA4GBAJSwLncnKYPqtlk8UYGaLYCI3lDj5trhwAyY3jHbRVyyD9t3pBuSOU8N
MtingAng6Pk/7Wly2QoPESpomrS8HCSnJo+NFEfJh0oe7q3Ytw4GQk11TVavAky3
Uqf32q40Hir6yjZ7waAic+/fkLjgA+raOQ2xY6ijkZd/B0Tdd9KT
-----END CERTIFICATE-----
