Certificate:
    Data:
        Version: 1 (0x0)
        Serial Number: 21 (0x15)
    Signature Algorithm: md5WithRSAEncryption
        Issuer: O=NOVA ROOT, L=Mountain View, ST=California, C=US
        Validity
            Not Before: May 27 13:40:57 2014 GMT
            Not After : May 27 13:40:57 2015 GMT
        Subject: C=US, ST=California, O=OpenStack, OU=NovaDev, CN=openstack-fake-2014-05-27T13:40:56Z
        Subject Public Key Info:
            Public Key Algorithm: rsaEncryption
                Public-Key: (1024 bit)
                Modulus:
                    00:ce:cd:a3:28:cf:6a:83:df:39:0e:24:39:5c:84:
                    11:8b:25:9c:b5:d8:37:ef:1f:2c:bb:bf:fa:4d:00:
                    df:26:5e:e0:bc:ca:f4:d6:7d:e5:5a:40:2c:ce:fc:
                    91:e7:5b:80:64:f6:bf:91:13:5e:21:d9:b4:ec:44:
                    76:d2:6b:6b:28:2d:af:7b:f3:ed:e8:f0:dc:88:dc:
                    43:38:17:ef:09:40:13:8b:30:4a:97:f9:e3:21:4b:
                    72:87:ea:bb:37:18:6d:c3:a6:ea:be:fb:31:3f:ba:
                    d5:03:3a:e0:52:0a:77:b8:fa:37:28:c9:14:f3:5e:
                    ca:51:2d:40:c1:e2:04:e7:fd
                Exponent: 65537 (0x10001)
    Signature Algorithm: md5WithRSAEncryption
         9d:47:1d:a2:f9:e4:9d:aa:6e:92:ad:a2:0d:72:79:0f:51:64:
         50:69:3e:0a:76:4f:6a:41:4c:f9:6e:df:f8:76:d6:10:bd:0d:
         d2:31:1a:62:c1:53:b9:e2:2a:05:31:a1:2f:ac:b0:42:fb:55:
         d6:9a:7a:4b:ee:78:ef:26:d3:49:23:42:ed:f9:c6:e2:97:fa:
         99:09:5f:ff:d4:4f:af:49:09:70:59:f6:67:65:aa:bd:de:b8:
         ad:1f:c6:60:30:3a:8d:7e:2b:03:80:f3:f4:0e:d5:34:da:c6:
         80:35:ca:13:2d:cd:3a:88:bf:67:55:10:2e:c9:8f:32:2c:71:
         71:db
-----BEGIN CERTIFICATE-----
MIICMzCCAZwCARUwDQYJKoZIhvcNAQEEBQAwTjESMBAGA1UEChMJTk9WQSBST09U
MRYwFAYDVQQHEw1Nb3VudGFpbiBWaWV3MRMwEQYDVQQIEwpDYWxpZm9ybmlhMQsw
CQYDVQQGEwJVUzAeFw0xNDA1MjcxMzQwNTdaFw0xNTA1MjcxMzQwNTdaMHYxCzAJ
BgNVBAYTAlVTMRMwEQYDVQQIDApDYWxpZm9ybmlhMRIwEAYDVQQKDAlPcGVuU3Rh
Y2sxEDAOBgNVBAsMB05vdmFEZXYxLDAqBgNVBAMMI29wZW5zdGFjay1mYWtlLTIw
MTQtMDUtMjdUMTM6NDA6NTZaMIGfMA0GCSqGSIb3DQEBAQUAA4GNADCBiQKBgQDO
zaMoz2qD3zkOJDlchBGLJZy12DfvHyy7v/pNAN8mXuC8yvTWfeVaQCzO/JHnW4Bk
9r+RE14h2bTsRHbSa2soLa978+3o8NyI3EM4F+8JQBOLMEqX+eMhS3KH6rs3GG3D
puq++zE/utUDOuBSCne4+jcoyRTzXspRLUDB4gTn/QIDAQABMA0GCSqGSIb3DQEB
BAUAA4GBAJ1HHaL55J2qbpKtog1yeQ9RZFBpPgp2T2pBTPlu3/h21hC9DdIxGmLB
U7niKgUxoS+ssEL7VdaaekvueO8m00kjQu35xuKX+pkJX//UT69JCXBZ9mdlqr3e
uK0fxmAwOo1+KwOA8/QO1TTaxoA1yhMtzTqIv2dVEC7JjzIscXHb
-----END CERTIFICATE-----
