Certificate:
    Data:
        Version: 1 (0x0)
        Serial Number: 22 (0x16)
    Signature Algorithm: md5WithRSAEncryption
        Issuer: O=NOVA ROOT, L=Mountain View, ST=California, C=US
        Validity
            Not Before: May 29 08:40:07 2014 GMT
            Not After : May 29 08:40:07 2015 GMT
        Subject: C=US, ST=California, O=OpenStack, OU=NovaDev, CN=openstack-fake-2014-05-29T08:40:07Z
        Subject Public Key Info:
            Public Key Algorithm: rsaEncryption
                Public-Key: (1024 bit)
                Modulus:
                    00:c1:c9:7a:96:27:a1:f7:42:02:3b:0b:b1:ee:71:
                    db:32:fd:a0:c9:68:fd:74:f1:4e:94:75:eb:0b:53:
                    76:fe:c1:ea:3a:17:13:2f:f2:27:6b:0a:79:71:3b:
                    55:c6:90:39:8c:e4:48:6f:1b:d5:f4:93:7c:ed:c9:
                    38:7b:24:ce:4e:b8:9e:f4:79:8f:d1:7d:0f:ad:c1:
                    72:e6:e5:e9:59:1d:b4:e2:43:7a:96:10:16:85:05:
                    a6:bf:60:08:35:6f:e4:9c:e7:77:30:c8:43:2a:e0:
                    a3:c1:43:9b:8a:3e:ce:a2:c5:fc:1b:97:2e:13:8f:
                    a8:e8:ca:33:12:4c:7d:57:cf
                Exponent: 65537 (0x10001)
    Signature Algorithm: md5WithRSAEncryption
         02:e5:05:4a:65:06:c5:b7:02:ec:3b:01:9f:43:35:6d:0e:82:
         12:82:a5:b5:38:b3:e3:f6:7e:60:08:d6:a5:a3:93:eb:c3:0d:
         7c:f8:d8:d7:1e:7c:ab:79:b7:76:fb:86:77:da:38:eb:d9:0e:
         af:42:c2:db:1a:2f:3f:ff:33:f2:77:d7:78:0c:a9:44:c0:5d:
         f4:ae:00:de:3d:38:c3:c8:aa:6b:52:53:6f:58:05:f5:6a:cf:
         b8:fa:7b:19:dd:45:7e:2e:02:ea:b8:6d:30:77:c1:a3:79:a1:
         b3:71:96:1d:89:7e:07:b9:98:85:5c:5d:c2:08:43:25:fd:69:
         4a:27
-----BEGIN CERTIFICATE-----
MIICMzCCAZwCARYwDQYJKoZIhvcNAQEEBQAwTjESMBAGA1UEChMJTk9WQSBST09U
MRYwFAYDVQQHEw1Nb3VudGFpbiBWaWV3MRMwEQYDVQQIEwpDYWxpZm9ybmlhMQsw
CQYDVQQGEwJVUzAeFw0xNDA1MjkwODQwMDdaFw0xNTA1MjkwODQwMDdaMHYxCzAJ
BgNVBAYTAlVTMRMwEQYDVQQIDApDYWxpZm9ybmlhMRIwEAYDVQQKDAlPcGVuU3Rh
Y2sxEDAOBgNVBAsMB05vdmFEZXYxLDAqBgNVBAMMI29wZW5zdGFjay1mYWtlLTIw
MTQtMDUtMjlUMDg6NDA6MDdaMIGfMA0GCSqGSIb3DQEBAQUAA4GNADCBiQKBgQDB
yXqWJ6H3QgI7C7Hucdsy/aDJaP108U6UdesLU3b+weo6FxMv8idrCnlxO1XGkDmM
5EhvG9X0k3ztyTh7JM5OuJ70eY/RfQ+twXLm5elZHbTiQ3qWEBaFBaa/YAg1b+Sc
53cwyEMq4KPBQ5uKPs6ixfwbly4Tj6joyjMSTH1XzwIDAQABMA0GCSqGSIb3DQEB
BAUAA4GBAALlBUplBsW3Auw7AZ9DNW0OghKCpbU4s+P2fmAI1qWjk+vDDXz42Nce
fKt5t3b7hnfaOOvZDq9CwtsaLz//M/J313gMqUTAXfSuAN49OMPIqmtSU29YBfVq
z7j6exndRX4uAuq4bTB3waN5obNxlh2Jfge5mIVcXcIIQyX9aUon
-----END CERTIFICATE-----
