Certificate:
    Data:
        Version: 1 (0x0)
        Serial Number: 23 (0x17)
    Signature Algorithm: md5WithRSAEncryption
        Issuer: O=NOVA ROOT, L=Mountain View, ST=California, C=US
        Validity
            Not Before: May 29 08:40:15 2014 GMT
            Not After : May 29 08:40:15 2015 GMT
        Subject: C=US, ST=California, O=OpenStack, OU=NovaDev, CN=openstack-fake-2014-05-29T08:40:14Z
        Subject Public Key Info:
            Public Key Algorithm: rsaEncryption
                Public-Key: (1024 bit)
                Modulus:
                    00:a7:4d:bd:b6:e7:cf:7d:11:d0:42:8f:92:bb:54:
                    1f:26:c7:54:3f:c3:38:fa:29:17:a0:53:fc:40:9d:
                    64:50:3e:38:4a:91:ee:01:86:3a:dd:c9:17:88:6a:
                    80:d2:75:d6:07:fb:44:75:df:61:11:ee:6e:e4:38:
                    2f:73:0b:93:0d:98:e1:dd:2f:b1:3e:e6:e5:d6:96:
                    d5:46:76:94:6c:bf:33:bd:14:f5:2e:06:3d:bc:57:
                    10:b0:58:b4:34:97:41:57:a0:bc:99:15:b9:bd:54:
                    79:3e:3a:1a:ac:27:c2:a1:e6:81:6d:99:57:17:7d:
                    e3:31:b4:74:01:66:de:86:4d
                Exponent: 65537 (0x10001)
    Signature Algorithm: md5WithRSAEncryption
         44:b2:fa:9a:e7:7a:cf:04:02:88:24:b3:fd:3f:a5:d2:63:37:
         65:c6:85:85:f2:84:66:23:a0:34:63:4b:53:8c:5c:df:82:d7:
         7f:fd:ac:b1:86:96:66:a9:a4:7c:82:18:50:b5:76:e1:47:ce:
         94:51:17:22:3e:67:8f:31:3f:f8:1a:a1:1d:38:e0:c7:f2:33:
         f7:f1:9b:50:8a:d0:05:b9:d7:fe:2e:c7:df:68:da:43:30:12:
         d1:3f:47:6f:59:29:24:83:19:cf:e8:2d:87:59:7a:04:51:60:
         8b:73:88:20:21:ab:82:c9:91:7a:3e:49:c2:c7:82:82:29:94:
         1d:58
-----BEGIN CERTIFICATE-----
MIICMzCCAZwCARcwDQYJKoZIhvcNAQEEBQAwTjESMBAGA1UEChMJTk9WQSBST09U
MRYwFAYDVQQHEw1Nb3VudGFpbiBWaWV3MRMwEQYDVQQIEwpDYWxpZm9ybmlhMQsw
CQYDVQQGEwJVUzAeFw0xNDA1MjkwODQwMTVaFw0xNTA1MjkwODQwMTVaMHYxCzAJ
BgNVBAYTAlVTMRMwEQYDVQQIDApDYWxpZm9ybmlhMRIwEAYDVQQKDAlPcGVuU3Rh
Y2sxEDAOBgNVBAsMB05vdmFEZXYxLDAqBgNVBAMMI29wZW5zdGFjay1mYWtlLTIw
MTQtMDUtMjlUMDg6NDA6MTRaMIGfMA0GCSqGSIb3DQEBAQUAA4GNADCBiQKBgQCn
Tb225899EdBCj5K7VB8mx1Q/wzj6KRegU/xAnWRQPjhKke4BhjrdyReIaoDSddYH
+0R132ER7m7kOC9zC5MNmOHdL7E+5uXWltVGdpRsvzO9FPUuBj28VxCwWLQ0l0FX
oLyZFbm9VHk+OhqsJ8Kh5oFtmVcXfeMxtHQBZt6GTQIDAQABMA0GCSqGSIb3DQEB
BAUAA4GBAESy+prnes8EAogks/0/pdJjN2XGhYXyhGYjoDRjS1OMXN+C13/9rLGG
lmappHyCGFC1duFHzpRRFyI+Z48xP/gaoR044MfyM/fxm1CK0AW51/4ux99o2kMw
EtE/R29ZKSSDGc/oLYdZegRRYItziCAhq4LJkXo+ScLHgoIplB1Y
-----END CERTIFICATE-----
