Certificate:
    Data:
        Version: 1 (0x0)
        Serial Number: 24 (0x18)
    Signature Algorithm: md5WithRSAEncryption
        Issuer: O=NOVA ROOT, L=Mountain View, ST=California, C=US
        Validity
            Not Before: May 29 09:04:59 2014 GMT
            Not After : May 29 09:04:59 2015 GMT
        Subject: C=US, ST=California, O=OpenStack, OU=NovaDev, CN=openstack-fake-2014-05-29T09:04:59Z
        Subject Public Key Info:
            Public Key Algorithm: rsaEncryption
                Public-Key: (1024 bit)
                Modulus:
                    00:b1:6c:3f:08:0f:06:09:01:c7:53:f7:14:d1:d7:
                    9b:54:76:4d:48:e9:af:90:93:82:df:5b:24:4a:21:
                    cd:1c:69:b9:e7:b6:cd:de:56:45:39:13:71:de:f5:
                    c7:2f:e5:1e:51:a0:80:5c:df:f4:7f:72:a8:95:0e:
                    03:d1:44:e8:70:8e:f3:54:0b:af:15:7e:99:68:9e:
                    b8:06:80:82:e8:a6:1e:9e:b6:aa:5d:cb:26:56:c8:
                    65:7a:8e:39:41:f8:d2:d6:2b:92:fe:ad:c2:3b:57:
                    d4:1b:ca:04:f4:d8:cd:c1:c5:20:7a:7b:42:ee:cf:
                    85:7f:0a:86:fe:89:ed:89:75
                Exponent: 65537 (0x10001)
    Signature Algorithm: md5WithRSAEncryption
         ae:e6:20:bf:e3:b5:d7:fb:d9:e5:13:99:2f:78:75:03:f2:f1:
         52:ef:0f:2e:9f:c5:c6:c6:10:59:fd:d6:27:7d:4f:2b:f8:be:
         e6:ba:54:0b:8d:2b:39:0d:18:d6:5a:0c:b7:c8:7f:88:b0:05:
         ff:96:97:3f:5a:bc:43:62:33:5e:a3:85:b6:91:38:a2:90:09:
         55:53:38:1d:97:d2:b1:cc:1b:37:2f:c4:3f:d0:ae:ee:da:c8:
         29:1c:ef:68:16:08:d8:6f:08:85:bc:2a:51:b5:1a:94:33:3a:
         a9:d9:55:c7:a7:52:e6:09:67:86:25:6c:90:65:93:40:f9:1a:
         ba:e3
-----BEGIN CERTIFICATE-----
MIICMzCCAZwCARgwDQYJKoZIhvcNAQEEBQAwTjESMBAGA1UEChMJTk9WQSBST09U
MRYwFAYDVQQHEw1Nb3VudGFpbiBWaWV3MRMwEQYDVQQIEwpDYWxpZm9ybmlhMQsw
CQYDVQQGEwJVUzAeFw0xNDA1MjkwOTA0NTlaFw0xNTA1MjkwOTA0NTlaMHYxCzAJ
BgNVBAYTAlVTMRMwEQYDVQQIDApDYWxpZm9ybmlhMRIwEAYDVQQKDAlPcGVuU3Rh
Y2sxEDAOBgNVBAsMB05vdmFEZXYxLDAqBgNVBAMMI29wZW5zdGFjay1mYWtlLTIw
MTQtMDUtMjlUMDk6MDQ6NTlaMIGfMA0GCSqGSIb3DQEBAQUAA4GNADCBiQKBgQCx
bD8IDwYJAcdT9xTR15tUdk1I6a+Qk4LfWyRKIc0cabnnts3eVkU5E3He9ccv5R5R
oIBc3/R/cqiVDgPRROhwjvNUC68VfplonrgGgILoph6etqpdyyZWyGV6jjlB+NLW
K5L+rcI7V9QbygT02M3BxSB6e0Luz4V/Cob+ie2JdQIDAQABMA0GCSqGSIb3DQEB
BAUAA4GBAK7mIL/jtdf72eUTmS94dQPy8VLvDy6fxcbGEFn91id9Tyv4vua6VAuN
KzkNGNZaDLfIf4iwBf+Wlz9avENiM16jhbaROKKQCVVTOB2X0rHMGzcvxD/Qru7a
yCkc72gWCNhvCIW8KlG1GpQzOqnZVcenUuYJZ4YlbJBlk0D5Grrj
-----END CERTIFICATE-----
