Certificate:
    Data:
        Version: 1 (0x0)
        Serial Number: 25 (0x19)
    Signature Algorithm: md5WithRSAEncryption
        Issuer: O=NOVA ROOT, L=Mountain View, ST=California, C=US
        Validity
            Not Before: May 29 09:05:01 2014 GMT
            Not After : May 29 09:05:01 2015 GMT
        Subject: C=US, ST=California, O=OpenStack, OU=NovaDev, CN=openstack-fake-2014-05-29T09:05:01Z
        Subject Public Key Info:
            Public Key Algorithm: rsaEncryption
                Public-Key: (1024 bit)
                Modulus:
                    00:b8:c8:ce:9f:66:8b:e2:c9:26:f2:5f:ab:e5:a7:
                    a2:fc:fa:2d:3d:f3:9c:80:a9:1a:21:c3:48:1f:1e:
                    30:0a:80:52:c2:97:6c:c2:21:f1:a3:b5:f7:9f:7d:
                    67:50:13:75:fc:1d:b3:01:30:a4:a6:ec:30:0e:37:
                    70:ec:5c:5b:86:19:3c:09:ef:8c:95:0a:12:21:58:
                    5c:ab:0a:6d:4a:86:65:ba:b2:8e:4e:d7:f8:2d:20:
                    2d:f0:f7:64:55:b2:b6:04:76:45:53:e5:d7:0e:37:
                    ea:49:ed:55:ef:8b:85:4d:cb:ac:2a:0e:fa:af:47:
                    43:33:de:de:7a:73:f0:20:ff
                Exponent: 65537 (0x10001)
    Signature Algorithm: md5WithRSAEncryption
         47:8e:59:d6:e7:46:ae:cc:0d:92:49:67:79:5a:44:e4:3b:e1:
         6d:54:92:75:05:92:56:a0:eb:c7:1e:06:3c:0f:8e:81:df:e4:
         f2:b5:5b:16:8f:df:bd:37:8a:81:92:e5:d4:81:80:ee:dc:dc:
         16:fe:23:eb:da:7c:ec:39:a3:21:9a:8d:80:c9:12:a1:dd:b3:
         bc:f7:2c:4e:42:69:20:6e:52:b3:d4:65:ad:84:a0:94:e0:47:
         6d:12:0b:5b:de:a8:22:0b:47:14:17:2f:d5:0e:2d:a9:64:0f:
         37:ff:0b:75:56:81:8f:38:66:0d:84:95:4c:3b:28:3d:c4:be:
         73:39
-----BEGIN CERTIFICATE-----
MIICMzCCAZwCARkwDQYJKoZIhvcNAQEEBQAwTjESMBAGA1UEChMJTk9WQSBST09U
MRYwFAYDVQQHEw1Nb3VudGFpbiBWaWV3MRMwEQYDVQQIEwpDYWxpZm9ybmlhMQsw
CQYDVQQGEwJVUzAeFw0xNDA1MjkwOTA1MDFaFw0xNTA1MjkwOTA1MDFaMHYxCzAJ
BgNVBAYTAlVTMRMwEQYDVQQIDApDYWxpZm9ybmlhMRIwEAYDVQQKDAlPcGVuU3Rh
Y2sxEDAOBgNVBAsMB05vdmFEZXYxLDAqBgNVBAMMI29wZW5zdGFjay1mYWtlLTIw
MTQtMDUtMjlUMDk6MDU6MDFaMIGfMA0GCSqGSIb3DQEBAQUAA4GNADCBiQKBgQC4
yM6fZoviySbyX6vlp6L8+i0985yAqRohw0gfHjAKgFLCl2zCIfGjtfeffWdQE3X8
HbMBMKSm7DAON3DsXFuGGTwJ74yVChIhWFyrCm1KhmW6so5O1/gtIC3w92RVsrYE
dkVT5dcON+pJ7VXvi4VNy6wqDvqvR0Mz3t56c/Ag/wIDAQABMA0GCSqGSIb3DQEB
BAUAA4GBAEeOWdbnRq7MDZJJZ3laROQ74W1UknUFklag68ceBjwPjoHf5PK1WxaP
3703ioGS5dSBgO7c3Bb+I+vafOw5oyGajYDJEqHds7z3LE5CaSBuUrPUZa2EoJTg
R20SC1veqCILRxQXL9UOLalkDzf/C3VWgY84Zg2ElUw7KD3EvnM5
-----END CERTIFICATE-----
