Certificate:
    Data:
        Version: 1 (0x0)
        Serial Number: 26 (0x1a)
    Signature Algorithm: md5WithRSAEncryption
        Issuer: O=NOVA ROOT, L=Mountain View, ST=California, C=US
        Validity
            Not Before: May 29 09:47:36 2014 GMT
            Not After : May 29 09:47:36 2015 GMT
        Subject: C=US, ST=California, O=OpenStack, OU=NovaDev, CN=openstack-fake-2014-05-29T11:40:28Z
        Subject Public Key Info:
            Public Key Algorithm: rsaEncryption
                Public-Key: (1024 bit)
                Modulus:
                    00:9f:59:0a:bf:72:5b:ea:63:18:09:21:f6:e8:d4:
                    50:98:3e:4e:28:3a:e5:fc:94:b4:5d:68:21:a2:a9:
                    19:20:39:f0:47:a6:39:ec:a7:86:86:9a:eb:b2:20:
                    73:95:73:0b:7a:f9:45:e0:c9:4d:82:82:c4:89:17:
                    0d:8d:0b:b6:eb:bf:fa:73:59:63:c5:14:9f:e6:8d:
                    58:4c:e6:0c:3e:f3:0f:7b:31:6b:50:92:32:46:b0:
                    f5:ff:4d:7d:e8:c7:3e:1f:2e:35:5a:83:8c:1a:fb:
                    f7:4c:26:ac:de:2e:8e:0b:4b:73:55:3f:c1:30:a3:
                    66:31:59:c2:20:8f:37:2f:f5
                Exponent: 65537 (0x10001)
    Signature Algorithm: md5WithRSAEncryption
         3b:e8:8b:f5:fd:7c:e0:80:9e:68:4b:12:a1:f0:89:2f:21:b0:
         26:eb:93:51:4d:68:2e:ad:ae:6f:04:23:b9:e3:66:b6:72:4b:
         2b:66:32:4c:b8:17:98:bf:f5:99:b1:39:d5:1d:3d:2b:5c:2d:
         be:da:32:71:ff:ed:1d:11:07:82:65:83:87:0b:ff:8a:d3:1e:
         a5:82:86:84:9c:29:13:a9:27:13:51:8c:46:ef:d7:a6:a8:00:
         65:a1:70:5e:df:0d:c6:c7:15:ad:bd:65:e0:86:5d:f4:77:64:
         e4:2a:2c:dc:b4:0c:99:a5:0d:7e:41:ed:7b:47:6f:11:58:cc:
         a1:c7
-----BEGIN CERTIFICATE-----
MIICMzCCAZwCARowDQYJKoZIhvcNAQEEBQAwTjESMBAGA1UEChMJTk9WQSBST09U
MRYwFAYDVQQHEw1Nb3VudGFpbiBWaWV3MRMwEQYDVQQIEwpDYWxpZm9ybmlhMQsw
CQYDVQQGEwJVUzAeFw0xNDA1MjkwOTQ3MzZaFw0xNTA1MjkwOTQ3MzZaMHYxCzAJ
BgNVBAYTAlVTMRMwEQYDVQQIDApDYWxpZm9ybmlhMRIwEAYDVQQKDAlPcGVuU3Rh
Y2sxEDAOBgNVBAsMB05vdmFEZXYxLDAqBgNVBAMMI29wZW5zdGFjay1mYWtlLTIw
MTQtMDUtMjlUMTE6NDA6MjhaMIGfMA0GCSqGSIb3DQEBAQUAA4GNADCBiQKBgQCf
WQq/clvqYxgJIfbo1FCYPk4oOuX8lLRdaCGiqRkgOfBHpjnsp4aGmuuyIHOVcwt6
+UXgyU2CgsSJFw2NC7brv/pzWWPFFJ/mjVhM5gw+8w97MWtQkjJGsPX/TX3oxz4f
LjVag4wa+/dMJqzeLo4LS3NVP8Ewo2YxWcIgjzcv9QIDAQABMA0GCSqGSIb3DQEB
BAUAA4GBADvoi/X9fOCAnmhLEqHwiS8hsCbrk1FNaC6trm8EI7njZrZySytmMky4
F5i/9ZmxOdUdPStcLb7aMnH/7R0RB4Jlg4cL/4rTHqWChoScKROpJxNRjEbv16ao
AGWhcF7fDcbHFa29ZeCGXfR3ZOQqLNy0DJmlDX5B7XtHbxFYzKHH
-----END CERTIFICATE-----
