Certificate:
    Data:
        Version: 1 (0x0)
        Serial Number: 27 (0x1b)
    Signature Algorithm: md5WithRSAEncryption
        Issuer: O=NOVA ROOT, L=Mountain View, ST=California, C=US
        Validity
            Not Before: May 29 10:12:30 2014 GMT
            Not After : May 29 10:12:30 2015 GMT
        Subject: C=US, ST=California, O=OpenStack, OU=NovaDev, CN=openstack-fake-2014-05-29T10:12:30Z
        Subject Public Key Info:
            Public Key Algorithm: rsaEncryption
                Public-Key: (1024 bit)
                Modulus:
                    00:d8:f8:3a:1c:24:57:a0:5e:3a:b8:db:22:35:92:
                    4a:15:7c:21:7b:2a:c6:4c:15:e4:84:7f:a9:03:50:
                    02:a0:85:b4:ef:a3:13:3c:f0:ac:a8:90:f0:fe:e6:
                    77:4c:ad:87:62:60:b9:e6:06:80:f7:77:7e:ea:d2:
                    35:e3:f0:37:a4:df:8a:92:a9:7a:76:8e:cf:ba:7d:
                    df:3a:20:3d:95:75:ce:5d:19:db:07:f7:02:20:48:
                    ed:a0:83:7b:a7:13:f5:92:9d:a5:77:e6:64:1e:1a:
                    f8:3f:2a:3c:c6:5c:0a:e9:3f:4a:cc:b1:c5:6b:3f:
                    81:fe:68:5f:03:a8:4e:52:81
                Exponent: 65537 (0x10001)
    Signature Algorithm: md5WithRSAEncryption
         95:c7:81:d1:16:65:bc:02:b6:40:71:4e:82:a8:9a:4f:e8:43:
         f4:1e:17:0d:f6:96:ee:83:a6:0b:66:7b:a1:59:27:42:a2:2e:
         65:f8:4d:22:1a:01:04:15:28:50:a2:9d:fe:2e:9d:47:bb:a3:
         30:ec:f0:99:be:6b:38:61:3e:fe:dd:e6:77:2f:fe:f6:de:d0:
         64:85:d9:f2:3d:92:13:7a:c5:72:9d:c7:3d:93:b5:f4:42:fa:
         22:34:4c:c8:be:ac:e2:6f:ed:e4:ae:38:49:59:2e:eb:da:87:
         aa:fb:94:85:fc:f2:d2:d8:ee:9a:85:4f:ce:c7:c7:e9:a3:f1:
         59:a0
-----BEGIN CERTIFICATE-----
MIICMzCCAZwCARswDQYJKoZIhvcNAQEEBQAwTjESMBAGA1UEChMJTk9WQSBST09U
MRYwFAYDVQQHEw1Nb3VudGFpbiBWaWV3MRMwEQYDVQQIEwpDYWxpZm9ybmlhMQsw
CQYDVQQGEwJVUzAeFw0xNDA1MjkxMDEyMzBaFw0xNTA1MjkxMDEyMzBaMHYxCzAJ
BgNVBAYTAlVTMRMwEQYDVQQIDApDYWxpZm9ybmlhMRIwEAYDVQQKDAlPcGVuU3Rh
Y2sxEDAOBgNVBAsMB05vdmFEZXYxLDAqBgNVBAMMI29wZW5zdGFjay1mYWtlLTIw
MTQtMDUtMjlUMTA6MTI6MzBaMIGfMA0GCSqGSIb3DQEBAQUAA4GNADCBiQKBgQDY
+DocJFegXjq42yI1kkoVfCF7KsZMFeSEf6kDUAKghbTvoxM88KyokPD+5ndMrYdi
YLnmBoD3d37q0jXj8Dek34qSqXp2js+6fd86ID2Vdc5dGdsH9wIgSO2gg3unE/WS
naV35mQeGvg/KjzGXArpP0rMscVrP4H+aF8DqE5SgQIDAQABMA0GCSqGSIb3DQEB
BAUAA4GBAJXHgdEWZbwCtkBxToKomk/oQ/QeFw32lu6Dpgtme6FZJ0KiLmX4TSIa
AQQVKFCinf4unUe7ozDs8Jm+azhhPv7d5ncv/vbe0GSF2fI9khN6xXKdxz2TtfRC
+iI0TMi+rOJv7eSuOElZLuvah6r7lIX88tLY7pqFT87Hx+mj8Vmg
-----END CERTIFICATE-----
