Certificate:
    Data:
        Version: 1 (0x0)
        Serial Number: 28 (0x1c)
    Signature Algorithm: md5WithRSAEncryption
        Issuer: O=NOVA ROOT, L=Mountain View, ST=California, C=US
        Validity
            Not Before: May 29 10:12:32 2014 GMT
            Not After : May 29 10:12:32 2015 GMT
        Subject: C=US, ST=California, O=OpenStack, OU=NovaDev, CN=openstack-fake-2014-05-29T10:12:32Z
        Subject Public Key Info:
            Public Key Algorithm: rsaEncryption
                Public-Key: (1024 bit)
                Modulus:
                    00:d9:97:f8:21:09:80:3b:63:95:a4:a0:de:e3:3b:
                    fb:6e:d4:6e:bb:6f:90:d8:52:f1:da:be:3a:b5:d9:
                    96:96:17:e2:65:74:e2:7c:3c:33:84:2a:0f:f0:01:
                    da:05:b6:68:15:72:77:f0:25:7c:4c:f4:fb:28:00:
                    24:3d:c6:c9:3d:33:c1:2a:ea:b1:e8:88:15:4a:c0:
                    94:f5:7b:ba:cc:c8:0c:82:4f:b6:a6:f7:37:4d:dd:
                    87:be:4c:a4:f4:a5:78:a6:6e:d9:7b:3c:63:3f:f6:
                    4b:24:f7:d1:26:8d:1b:2b:cb:3e:e4:cd:5d:30:c9:
                    3e:a7:33:79:3f:44:18:71:c5
                Exponent: 65537 (0x10001)
    Signature Algorithm: md5WithRSAEncryption
         8f:b2:c2:fe:41:79:70:31:2a:ab:4d:f4:7b:47:19:63:6b:23:
         04:50:41:23:69:20:8a:b4:89:c1:79:8f:13:cd:1d:04:d4:f0:
         25:17:d8:d6:47:65:42:38:07:ea:ab:cb:bf:9d:19:f0:8f:dd:
         82:d4:c4:d5:40:85:18:12:bd:53:a8:92:12:ee:e0:f0:b9:6a:
         10:2f:8b:e2:a6:86:a7:b4:45:4a:fd:c6:71:27:43:28:62:e1:
         84:5d:03:07:cc:58:5d:20:ba:be:ea:ec:ef:ab:00:f4:e8:3d:
         78:34:00:2c:3c:a8:ad:d6:50:1e:31:05:24:32:a6:7d:58:6c:
         9c:0c
-----BEGIN CERTIFICATE-----
MIICMzCCAZwCARwwDQYJKoZIhvcNAQEEBQAwTjESMBAGA1UEChMJTk9WQSBST09U
MRYwFAYDVQQHEw1Nb3VudGFpbiBWaWV3MRMwEQYDVQQIEwpDYWxpZm9ybmlhMQsw
CQYDVQQGEwJVUzAeFw0xNDA1MjkxMDEyMzJaFw0xNTA1MjkxMDEyMzJaMHYxCzAJ
BgNVBAYTAlVTMRMwEQYDVQQIDApDYWxpZm9ybmlhMRIwEAYDVQQKDAlPcGVuU3Rh
Y2sxEDAOBgNVBAsMB05vdmFEZXYxLDAqBgNVBAMMI29wZW5zdGFjay1mYWtlLTIw
MTQtMDUtMjlUMTA6MTI6MzJaMIGfMA0GCSqGSIb3DQEBAQUAA4GNADCBiQKBgQDZ
l/ghCYA7Y5WkoN7jO/tu1G67b5DYUvHavjq12ZaWF+JldOJ8PDOEKg/wAdoFtmgV
cnfwJXxM9PsoACQ9xsk9M8Eq6rHoiBVKwJT1e7rMyAyCT7am9zdN3Ye+TKT0pXim
btl7PGM/9ksk99EmjRsryz7kzV0wyT6nM3k/RBhxxQIDAQABMA0GCSqGSIb3DQEB
BAUAA4GBAI+ywv5BeXAxKqtN9HtHGWNrIwRQQSNpIIq0icF5jxPNHQTU8CUX2NZH
ZUI4B+qry7+dGfCP3YLUxNVAhRgSvVOokhLu4PC5ahAvi+Kmhqe0RUr9xnEnQyhi
4YRdAwfMWF0gur7q7O+rAPToPXg0ACw8qK3WUB4xBSQypn1YbJwM
-----END CERTIFICATE-----
