Certificate:
    Data:
        Version: 1 (0x0)
        Serial Number: 29 (0x1d)
    Signature Algorithm: md5WithRSAEncryption
        Issuer: O=NOVA ROOT, L=Mountain View, ST=California, C=US
        Validity
            Not Before: May 29 10:57:36 2014 GMT
            Not After : May 29 10:57:36 2015 GMT
        Subject: C=US, ST=California, O=OpenStack, OU=NovaDev, CN=openstack-fake-2014-05-29T12:50:13Z
        Subject Public Key Info:
            Public Key Algorithm: rsaEncryption
                Public-Key: (1024 bit)
                Modulus:
                    00:d0:f0:79:f0:50:1d:49:60:da:83:14:22:1e:38:
                    ec:81:c3:e8:58:f7:5c:76:7c:46:65:b3:87:8a:2f:
                    97:65:08:d8:6d:1b:ff:49:86:8e:7f:66:49:3e:cf:
                    49:a8:2e:cf:f9:7d:2e:73:c8:3d:88:49:94:59:99:
                    79:6f:6a:08:5a:ef:6f:bc:ae:9a:2d:f1:62:df:0e:
                    12:28:0b:02:7a:13:b1:c9:7a:a0:cd:26:9d:06:ed:
                    2d:f9:56:47:c5:36:3c:f9:16:a1:a5:e7:b2:04:0e:
                    89:f4:7e:f4:64:bf:5a:07:fa:3c:35:36:12:18:94:
                    54:c7:eb:ab:c0:e6:68:79:3b
                Exponent: 65537 (0x10001)
    Signature Algorithm: md5WithRSAEncryption
         08:48:04:07:76:69:ce:a6:88:9f:71:75:d1:f7:77:96:ff:5c:
         71:a6:5c:93:de:61:61:e5:fa:6f:40:b1:a9:85:19:0d:87:5b:
         af:2f:0e:1e:2a:d4:82:18:c4:a9:c0:c8:dc:6a:df:76:99:5f:
         a1:c5:00:af:9c:c8:bc:a6:4c:04:3e:66:85:80:a8:a8:4c:c4:
         9c:7d:2a:b8:64:c9:cb:d8:c3:8b:71:da:c4:8f:88:a5:53:e0:
         39:1a:d8:dd:9b:83:3e:bf:3e:1e:52:69:84:f0:81:d3:a1:d1:
         a0:d4:52:ee:58:7c:3d:80:e8:ce:97:24:27:ca:64:68:ff:c1:
         26:0a
-----BEGIN CERTIFICATE-----
MIICMzCCAZwCAR0wDQYJKoZIhvcNAQEEBQAwTjESMBAGA1UEChMJTk9WQSBST09U
MRYwFAYDVQQHEw1Nb3VudGFpbiBWaWV3MRMwEQYDVQQIEwpDYWxpZm9ybmlhMQsw
CQYDVQQGEwJVUzAeFw0xNDA1MjkxMDU3MzZaFw0xNTA1MjkxMDU3MzZaMHYxCzAJ
BgNVBAYTAlVTMRMwEQYDVQQIDApDYWxpZm9ybmlhMRIwEAYDVQQKDAlPcGVuU3Rh
Y2sxEDAOBgNVBAsMB05vdmFEZXYxLDAqBgNVBAMMI29wZW5zdGFjay1mYWtlLTIw
MTQtMDUtMjlUMTI6NTA6MTNaMIGfMA0GCSqGSIb3DQEBAQUAA4GNADCBiQKBgQDQ
8HnwUB1JYNqDFCIeOOyBw+hY91x2fEZls4eKL5dlCNhtG/9Jho5/Zkk+z0moLs/5
fS5zyD2ISZRZmXlvagha72+8rpot8WLfDhIoCwJ6E7HJeqDNJp0G7S35VkfFNjz5
FqGl57IEDon0fvRkv1oH+jw1NhIYlFTH66vA5mh5OwIDAQABMA0GCSqGSIb3DQEB
BAUAA4GBAAhIBAd2ac6miJ9xddH3d5b/XHGmXJPeYWHl+m9AsamFGQ2HW68vDh4q
1IIYxKnAyNxq33aZX6HFAK+cyLymTAQ+ZoWAqKhMxJx9KrhkycvYw4tx2sSPiKVT
4Dka2N2bgz6/Ph5SaYTwgdOh0aDUUu5YfD2A6M6XJCfKZGj/wSYK
-----END CERTIFICATE-----
